target datalayout = "e-m:e-p270:32:32-p271:32:32-p272:64:64-i64:64-i128:128-f80:128-n8:16:32:64-S128"
target triple = "x86_64-pc-linux-gnu"

%"class.llvm::FoldingSetBase::Node" = type { ptr }
%"class.llvm::IntrusiveRefCntPtr.743" = type { ptr }
%"class.llvm::ImmutableList" = type { ptr }
%"struct.(anonymous namespace)::LoopState" = type <{ i32, [4 x i8], ptr, ptr, i32, [4 x i8] }>
%"class.llvm::ImmutableListImpl" = type { %"class.llvm::FoldingSetBase::Node", %"struct.(anonymous namespace)::LoopState", ptr }

@_ZZN5clang4ento17ProgramStateTraitIN12_GLOBAL__N_19LoopStackEE8GDMIndexEvE5Index = internal global i32 0, align 4

; Function Attrs: mustprogress nounwind uwtable
define internal void @_ZN4llvm13ImmutableListIN12_GLOBAL__N_19LoopStateEEC2EPKNS_17ImmutableListImplIS2_EE(ptr noundef nonnull align 8 dereferenceable(8) %0, ptr noundef %1) unnamed_addr #0 align 2 {
  %3 = alloca ptr, align 8
  %4 = alloca ptr, align 8
  store ptr %0, ptr %3, align 8
  store ptr %1, ptr %4, align 8
  %5 = load ptr, ptr %3, align 8
  %6 = getelementptr inbounds nuw %"class.llvm::ImmutableList", ptr %5, i32 0, i32 0
  %7 = load ptr, ptr %4, align 8
  store ptr %7, ptr %6, align 8
  ret void
}

; Function Attrs: mustprogress nounwind uwtable
define internal noundef nonnull align 8 dereferenceable(28) ptr @_ZNK4llvm17ImmutableListImplIN12_GLOBAL__N_19LoopStateEE7getHeadEv(ptr noundef nonnull align 8 dereferenceable(48) %0) #0 align 2 {
  %2 = alloca ptr, align 8
  store ptr %0, ptr %2, align 8
  %3 = load ptr, ptr %2, align 8
  %4 = getelementptr inbounds nuw %"class.llvm::ImmutableListImpl", ptr %3, i32 0, i32 1
  ret ptr %4
}

; Function Attrs: mustprogress nounwind uwtable
define internal ptr @_ZN5clang4ento24ProgramStatePartialTraitIN4llvm13ImmutableListIN12_GLOBAL__N_19LoopStateEEEvE8MakeDataEPKPv(ptr noundef %0) #0 align 2 {
  %2 = alloca %"class.llvm::ImmutableList", align 8
  %3 = alloca ptr, align 8
  store ptr %0, ptr %3, align 8
  %4 = load ptr, ptr %3, align 8
  %5 = icmp ne ptr %4, null
  br i1 %5, label %6, label %9

6:                                                ; preds = %1
  %7 = load ptr, ptr %3, align 8
  %8 = load ptr, ptr %7, align 8
  call void @_ZN4llvm13ImmutableListIN12_GLOBAL__N_19LoopStateEEC2EPKNS_17ImmutableListImplIS2_EE(ptr noundef nonnull align 8 dereferenceable(8) %2, ptr noundef %8)
  br label %10

9:                                                ; preds = %1
  call void @_ZN4llvm13ImmutableListIN12_GLOBAL__N_19LoopStateEEC2EPKNS_17ImmutableListImplIS2_EE(ptr noundef nonnull align 8 dereferenceable(8) %2, ptr noundef null)
  br label %10

10:                                               ; preds = %9, %6
  %11 = getelementptr inbounds nuw %"class.llvm::ImmutableList", ptr %2, i32 0, i32 0
  %12 = load ptr, ptr %11, align 8
  ret ptr %12
}

; Function Attrs: mustprogress nounwind uwtable
define internal noundef ptr @_ZN5clang4ento17ProgramStateTraitIN12_GLOBAL__N_19LoopStackEE8GDMIndexEv() #0 align 2 {
  ret ptr @_ZZN5clang4ento17ProgramStateTraitIN12_GLOBAL__N_19LoopStackEE8GDMIndexEvE5Index
}

; Function Attrs: mustprogress nounwind uwtable
define internal noundef zeroext i1 @_ZNK12_GLOBAL__N_19LoopState10isUnrolledEv(ptr noundef nonnull align 8 dereferenceable(28) %0) #0 align 2 {
  %2 = alloca ptr, align 8
  store ptr %0, ptr %2, align 8
  %3 = load ptr, ptr %2, align 8
  %4 = getelementptr inbounds nuw %"struct.(anonymous namespace)::LoopState", ptr %3, i32 0, i32 0
  %5 = load i32, ptr %4, align 8
  %6 = icmp eq i32 %5, 1
  ret i1 %6
}

; Function Attrs: mustprogress nounwind uwtable
define internal noundef nonnull align 8 dereferenceable(28) ptr @_ZNK4llvm13ImmutableListIN12_GLOBAL__N_19LoopStateEE7getHeadEv(ptr noundef nonnull align 8 dereferenceable(8) %0) #0 align 2 {
  %2 = alloca ptr, align 8
  store ptr %0, ptr %2, align 8
  %3 = load ptr, ptr %2, align 8
  %4 = getelementptr inbounds nuw %"class.llvm::ImmutableList", ptr %3, i32 0, i32 0
  %5 = load ptr, ptr %4, align 8
  %6 = call noundef nonnull align 8 dereferenceable(28) ptr @_ZNK4llvm17ImmutableListImplIN12_GLOBAL__N_19LoopStateEE7getHeadEv(ptr noundef nonnull align 8 dereferenceable(48) %5)
  ret ptr %6
}

; Function Attrs: mustprogress nounwind uwtable
define internal noundef zeroext i1 @_ZNK4llvm13ImmutableListIN12_GLOBAL__N_19LoopStateEE7isEmptyEv(ptr noundef nonnull align 8 dereferenceable(8) %0) #0 align 2 {
  %2 = alloca ptr, align 8
  store ptr %0, ptr %2, align 8
  %3 = load ptr, ptr %2, align 8
  %4 = getelementptr inbounds nuw %"class.llvm::ImmutableList", ptr %3, i32 0, i32 0
  %5 = load ptr, ptr %4, align 8
  %6 = icmp ne ptr %5, null
  %7 = xor i1 %6, true
  ret i1 %7
}

; Function Attrs: mustprogress nounwind uwtable
define internal ptr @_ZNK5clang4ento12ProgramState3getIN12_GLOBAL__N_19LoopStackEEENS0_17ProgramStateTraitIT_E9data_typeEv(ptr noundef nonnull align 8 dereferenceable(48) %0) #0 align 2 {
  %2 = alloca %"class.llvm::ImmutableList", align 8
  %3 = alloca ptr, align 8
  store ptr %0, ptr %3, align 8
  %4 = load ptr, ptr %3, align 8
  %5 = call noundef ptr @_ZN5clang4ento17ProgramStateTraitIN12_GLOBAL__N_19LoopStackEE8GDMIndexEv()
  %6 = call noundef ptr @_ZNK5clang4ento12ProgramState7FindGDMEPv(ptr noundef nonnull align 8 dereferenceable(48) %4, ptr noundef %5)
  %7 = call ptr @_ZN5clang4ento24ProgramStatePartialTraitIN4llvm13ImmutableListIN12_GLOBAL__N_19LoopStateEEEvE8MakeDataEPKPv(ptr noundef %6)
  %8 = getelementptr inbounds nuw %"class.llvm::ImmutableList", ptr %2, i32 0, i32 0
  store ptr %7, ptr %8, align 8
  %9 = getelementptr inbounds nuw %"class.llvm::ImmutableList", ptr %2, i32 0, i32 0
  %10 = load ptr, ptr %9, align 8
  ret ptr %10
}

; Function Attrs: mustprogress nounwind uwtable
define linkonce_odr hidden noundef ptr @_ZNK4llvm18IntrusiveRefCntPtrIKN5clang4ento12ProgramStateEEptEv(ptr noundef nonnull align 8 dereferenceable(8) %0) #0 comdat align 2 {
  %2 = alloca ptr, align 8
  store ptr %0, ptr %2, align 8
  %3 = load ptr, ptr %2, align 8
  %4 = getelementptr inbounds nuw %"class.llvm::IntrusiveRefCntPtr.743", ptr %3, i32 0, i32 0
  %5 = load ptr, ptr %4, align 8
  ret ptr %5
}

; Function Attrs: mustprogress nounwind uwtable
define dso_local noundef zeroext i1 @_ZN5clang4ento15isUnrolledStateEN4llvm18IntrusiveRefCntPtrIKNS0_12ProgramStateEEE(ptr noundef %0) #0 {
  %2 = alloca i1, align 1
  %3 = alloca ptr, align 8
  %4 = alloca %"class.llvm::ImmutableList", align 8
  store ptr %0, ptr %3, align 8
  %5 = call noundef ptr @_ZNK4llvm18IntrusiveRefCntPtrIKN5clang4ento12ProgramStateEEptEv(ptr noundef nonnull align 8 dereferenceable(8) %0)
  %6 = call ptr @_ZNK5clang4ento12ProgramState3getIN12_GLOBAL__N_19LoopStackEEENS0_17ProgramStateTraitIT_E9data_typeEv(ptr noundef nonnull align 8 dereferenceable(48) %5)
  %7 = getelementptr inbounds nuw %"class.llvm::ImmutableList", ptr %4, i32 0, i32 0
  store ptr %6, ptr %7, align 8
  %8 = call noundef zeroext i1 @_ZNK4llvm13ImmutableListIN12_GLOBAL__N_19LoopStateEE7isEmptyEv(ptr noundef nonnull align 8 dereferenceable(8) %4)
  br i1 %8, label %12, label %9

9:                                                ; preds = %1
  %10 = call noundef nonnull align 8 dereferenceable(28) ptr @_ZNK4llvm13ImmutableListIN12_GLOBAL__N_19LoopStateEE7getHeadEv(ptr noundef nonnull align 8 dereferenceable(8) %4)
  %11 = call noundef zeroext i1 @_ZNK12_GLOBAL__N_19LoopState10isUnrolledEv(ptr noundef nonnull align 8 dereferenceable(28) %10)
  br i1 %11, label %13, label %12

12:                                               ; preds = %9, %1
  store i1 false, ptr %2, align 1
  br label %14

13:                                               ; preds = %9
  store i1 true, ptr %2, align 1
  br label %14

14:                                               ; preds = %13, %12
  %15 = load i1, ptr %2, align 1
  ret i1 %15
}