; Function Attrs: mustprogress nounwind uwtable
define dso_local noundef zeroext i1 @_ZN5clang4ento15isUnrolledStateEN4llvm18IntrusiveRefCntPtrIKNS0_12ProgramStateEEE(ptr nocapture noundef readonly %0) local_unnamed_addr #0 {
  %2 = load ptr, ptr %0, align 8
  %3 = tail call noundef ptr @_ZNK5clang4ento12ProgramState7FindGDMEPv(ptr noundef nonnull align 8 dereferenceable(48) %2, ptr noundef nonnull @_ZZN5clang4ento17ProgramStateTraitIN12_GLOBAL__N_19LoopStackEE8GDMIndexEvE5Index) #17
  %.not.i.i = icmp eq ptr %3, null
  br i1 %.not.i.i, label %_ZNK5clang4ento12ProgramState3getIN12_GLOBAL__N_19LoopStackEEENS0_17ProgramStateTraitIT_E9data_typeEv.exit.thread, label %_ZNK5clang4ento12ProgramState3getIN12_GLOBAL__N_19LoopStackEEENS0_17ProgramStateTraitIT_E9data_typeEv.exit

_ZNK5clang4ento12ProgramState3getIN12_GLOBAL__N_19LoopStackEEENS0_17ProgramStateTraitIT_E9data_typeEv.exit: ; preds = %1
  %4 = load ptr, ptr %3, align 8
  %.not.i = icmp eq ptr %4, null
  br i1 %.not.i, label %_ZNK5clang4ento12ProgramState3getIN12_GLOBAL__N_19LoopStackEEENS0_17ProgramStateTraitIT_E9data_typeEv.exit.thread, label %5

5:                                                ; preds = %_ZNK5clang4ento12ProgramState3getIN12_GLOBAL__N_19LoopStackEEENS0_17ProgramStateTraitIT_E9data_typeEv.exit
  %6 = getelementptr inbounds nuw i8, ptr %4, i64 8
  %.val2 = load i32, ptr %6, align 8
  %7 = icmp eq i32 %.val2, 1
  br label %_ZNK5clang4ento12ProgramState3getIN12_GLOBAL__N_19LoopStackEEENS0_17ProgramStateTraitIT_E9data_typeEv.exit.thread

_ZNK5clang4ento12ProgramState3getIN12_GLOBAL__N_19LoopStackEEENS0_17ProgramStateTraitIT_E9data_typeEv.exit.thread: ; preds = %1, %5, %_ZNK5clang4ento12ProgramState3getIN12_GLOBAL__N_19LoopStackEEENS0_17ProgramStateTraitIT_E9data_typeEv.exit
  %.0 = phi i1 [ false, %_ZNK5clang4ento12ProgramState3getIN12_GLOBAL__N_19LoopStackEEENS0_17ProgramStateTraitIT_E9data_typeEv.exit ], [ %7, %5 ], [ false, %1 ]
  ret i1 %.0
}